; Function Attrs: mustprogress nounwind uwtable
define dso_local void @_ZNK4llvm10AsmPrinter14emitVisibilityEPNS_8MCSymbolEjb(ptr nocapture noundef nonnull readonly align 8 dereferenceable(785) %0, ptr noundef %1, i32 noundef %2, i1 noundef zeroext %3) local_unnamed_addr #0 align 2 {
  switch i32 %2, label %.thread [
    i32 1, label %5
    i32 2, label %12
  ]

5:                                                ; preds = %4
  %6 = getelementptr inbounds nuw i8, ptr %0, i64 64
  %7 = load ptr, ptr %6, align 8
  br i1 %3, label %8, label %10

8:                                                ; preds = %5
  %9 = getelementptr inbounds nuw i8, ptr %7, i64 388
  br label %16

10:                                               ; preds = %5
  %11 = getelementptr inbounds nuw i8, ptr %7, i64 396
  br label %16

12:                                               ; preds = %4
  %13 = getelementptr inbounds nuw i8, ptr %0, i64 64
  %14 = load ptr, ptr %13, align 8
  %15 = getelementptr inbounds nuw i8, ptr %14, i64 400
  br label %16

16:                                               ; preds = %8, %10, %12
  %.0.in = phi ptr [ %15, %12 ], [ %9, %8 ], [ %11, %10 ]
  %.0 = load i32, ptr %.0.in, align 4
  %.not = icmp eq i32 %.0, 0
  br i1 %.not, label %.thread, label %17

17:                                               ; preds = %16
  %18 = getelementptr inbounds nuw i8, ptr %0, i64 80
  %19 = load ptr, ptr %18, align 8
  %20 = load ptr, ptr %19, align 8
  %21 = getelementptr inbounds i8, ptr %20, i64 296
  %22 = load ptr, ptr %21, align 8
  %23 = tail call noundef zeroext i1 %22(ptr noundef nonnull align 8 dereferenceable(288) %19, ptr noundef %1, i32 noundef %.0) #33
  br label %.thread

.thread:                                          ; preds = %4, %17, %16
  ret void
}